target datalayout = "e-m:e-p270:32:32-p271:32:32-p272:64:64-i64:64-i128:128-f80:128-n8:16:32:64-S128"
target triple = "x86_64-pc-linux-gnu"

@UseCompressedClassPointers = external global i8, align 1

; Function Attrs: mustprogress nounwind uwtable
define linkonce_odr hidden noundef zeroext i1 @_ZN9Metaspace17using_class_spaceEv() #1 comdat align 2 {
  %1 = load i8, ptr @UseCompressedClassPointers, align 1
  %2 = trunc i8 %1 to i1
  ret i1 %2
}

; Function Attrs: mustprogress nounwind uwtable
define hidden noundef zeroext i1 @_ZN9Metaspace19contains_non_sharedEPKv(ptr noundef %0) #1 align 2 {
  %2 = alloca i1, align 1
  %3 = alloca ptr, align 8
  store ptr %0, ptr %3, align 8
  %4 = call noundef zeroext i1 @_ZN9Metaspace17using_class_spaceEv()
  br i1 %4, label %5, label %10

5:                                                ; preds = %1
  %6 = call noundef ptr @_ZN9metaspace16VirtualSpaceList12vslist_classEv()
  %7 = load ptr, ptr %3, align 8
  %8 = call noundef zeroext i1 @_ZNK9metaspace16VirtualSpaceList8containsEPKP12MetaWordImpl(ptr noundef nonnull align 8 dereferenceable(56) %6, ptr noundef %7)
  br i1 %8, label %9, label %10

9:                                                ; preds = %5
  store i1 true, ptr %2, align 1
  br label %14

10:                                               ; preds = %5, %1
  %11 = call noundef ptr @_ZN9metaspace16VirtualSpaceList15vslist_nonclassEv()
  %12 = load ptr, ptr %3, align 8
  %13 = call noundef zeroext i1 @_ZNK9metaspace16VirtualSpaceList8containsEPKP12MetaWordImpl(ptr noundef nonnull align 8 dereferenceable(56) %11, ptr noundef %12)
  store i1 %13, ptr %2, align 1
  br label %14

14:                                               ; preds = %10, %9
  %15 = load i1, ptr %2, align 1
  ret i1 %15
}