; Function Attrs: mustprogress nounwind uwtable
define hidden noundef zeroext i1 @_ZN9Metaspace19contains_non_sharedEPKv(ptr noundef %0) local_unnamed_addr #0 align 2 {
  %2 = load i8, ptr @UseCompressedClassPointers, align 1
  %3 = trunc i8 %2 to i1
  br i1 %3, label %4, label %7

4:                                                ; preds = %1
  %5 = tail call noundef ptr @_ZN9metaspace16VirtualSpaceList12vslist_classEv() #14
  %6 = tail call noundef zeroext i1 @_ZNK9metaspace16VirtualSpaceList8containsEPKP12MetaWordImpl(ptr noundef nonnull align 8 dereferenceable(56) %5, ptr noundef %0) #14
  br i1 %6, label %10, label %7

7:                                                ; preds = %4, %1
  %8 = tail call noundef ptr @_ZN9metaspace16VirtualSpaceList15vslist_nonclassEv() #14
  %9 = tail call noundef zeroext i1 @_ZNK9metaspace16VirtualSpaceList8containsEPKP12MetaWordImpl(ptr noundef nonnull align 8 dereferenceable(56) %8, ptr noundef %0) #14
  br label %10

10:                                               ; preds = %4, %7
  %.0 = phi i1 [ %9, %7 ], [ true, %4 ]
  ret i1 %.0
}